target datalayout = "e-m:e-p270:32:32-p271:32:32-p272:64:64-i64:64-i128:128-f80:128-n8:16:32:64-S128"
target triple = "x86_64-pc-linux-gnu"

%struct.TupleDescData = type { i32, i32, i32, i32, ptr, [0 x %struct.CompactAttribute] }
%struct.CompactAttribute = type { i32, i16, i8, i8, i8, i8, i8, i8, i8 }
%struct.FormData_pg_attribute = type { i32, %struct.nameData, i32, i16, i16, i32, i16, i8, i8, i8, i8, i8, i8, i8, i8, i8, i8, i8, i16, i32 }
%struct.nameData = type { [64 x i8] }

@.str.2 = private unnamed_addr constant [10 x i8] c"execSRF.c\00", align 1
@.str.11 = private unnamed_addr constant [64 x i8] c"function return row and query-specified return row do not match\00", align 1
@.str.12 = private unnamed_addr constant [58 x i8] c"Returned row contains %d attribute, but query expects %d.\00", align 1
@.str.13 = private unnamed_addr constant [59 x i8] c"Returned row contains %d attributes, but query expects %d.\00", align 1
@__func__.tupledesc_match = private unnamed_addr constant [16 x i8] c"tupledesc_match\00", align 1
@.str.14 = private unnamed_addr constant [63 x i8] c"Returned type %s at ordinal position %d, but query expects %s.\00", align 1
@.str.15 = private unnamed_addr constant [71 x i8] c"Physical storage mismatch on dropped attribute at ordinal position %d.\00", align 1

; Function Attrs: inlinehint nounwind uwtable
define internal ptr @TupleDescAttr(ptr noundef %0, i32 noundef %1) #2 {
  %3 = alloca ptr, align 8
  %4 = alloca i32, align 4
  %5 = alloca ptr, align 8
  store ptr %0, ptr %3, align 8
  store i32 %1, ptr %4, align 4
  call void @llvm.lifetime.start.p0(i64 8, ptr %5) #7
  %6 = load ptr, ptr %3, align 8
  %7 = load ptr, ptr %3, align 8
  %8 = getelementptr inbounds nuw %struct.TupleDescData, ptr %7, i32 0, i32 0
  %9 = load i32, ptr %8, align 8
  %10 = sext i32 %9 to i64
  %11 = mul i64 %10, 16
  %12 = add i64 24, %11
  %13 = getelementptr inbounds nuw i8, ptr %6, i64 %12
  store ptr %13, ptr %5, align 8
  %14 = load ptr, ptr %5, align 8
  %15 = load i32, ptr %4, align 4
  %16 = sext i32 %15 to i64
  %17 = getelementptr inbounds %struct.FormData_pg_attribute, ptr %14, i64 %16
  call void @llvm.lifetime.end.p0(i64 8, ptr %5) #7
  ret ptr %17
}

; Function Attrs: nounwind uwtable
define internal void @tupledesc_match(ptr noundef %0, ptr noundef %1) #0 {
  %3 = alloca ptr, align 8
  %4 = alloca ptr, align 8
  %5 = alloca i32, align 4
  %6 = alloca ptr, align 8
  %7 = alloca ptr, align 8
  %8 = alloca i32, align 4
  store ptr %0, ptr %3, align 8
  store ptr %1, ptr %4, align 8
  call void @llvm.lifetime.start.p0(i64 4, ptr %5) #7
  %9 = load ptr, ptr %3, align 8
  %10 = getelementptr inbounds nuw %struct.TupleDescData, ptr %9, i32 0, i32 0
  %11 = load i32, ptr %10, align 8
  %12 = load ptr, ptr %4, align 8
  %13 = getelementptr inbounds nuw %struct.TupleDescData, ptr %12, i32 0, i32 0
  %14 = load i32, ptr %13, align 8
  %15 = icmp ne i32 %11, %14
  br i1 %15, label %16, label %39

16:                                               ; preds = %2
  br label %17

17:                                               ; preds = %16
  br i1 true, label %18, label %20

18:                                               ; preds = %17
  %19 = call zeroext i1 @errstart_cold(i32 noundef 21, ptr noundef null) #8
  br i1 %19, label %22, label %36

20:                                               ; preds = %17
  %21 = call zeroext i1 @errstart(i32 noundef 21, ptr noundef null)
  br i1 %21, label %22, label %36

22:                                               ; preds = %20, %18
  %23 = call i32 @errcode(i32 noundef 67141764)
  %24 = call i32 (ptr, ...) @errmsg(ptr noundef @.str.11)
  %25 = load ptr, ptr %4, align 8
  %26 = getelementptr inbounds nuw %struct.TupleDescData, ptr %25, i32 0, i32 0
  %27 = load i32, ptr %26, align 8
  %28 = sext i32 %27 to i64
  %29 = load ptr, ptr %4, align 8
  %30 = getelementptr inbounds nuw %struct.TupleDescData, ptr %29, i32 0, i32 0
  %31 = load i32, ptr %30, align 8
  %32 = load ptr, ptr %3, align 8
  %33 = getelementptr inbounds nuw %struct.TupleDescData, ptr %32, i32 0, i32 0
  %34 = load i32, ptr %33, align 8
  %35 = call i32 (ptr, ptr, i64, ...) @errdetail_plural(ptr noundef @.str.12, ptr noundef @.str.13, i64 noundef %28, i32 noundef %31, i32 noundef %34)
  call void @errfinish(ptr noundef @.str.2, i32 noundef 954, ptr noundef @__func__.tupledesc_match)
  br label %36

36:                                               ; preds = %22, %20, %18
  unreachable

37:                                               ; No predecessors!
  br label %38

38:                                               ; preds = %37
  br label %39

39:                                               ; preds = %38, %2
  store i32 0, ptr %5, align 4
  br label %40

40:                                               ; preds = %128, %39
  %41 = load i32, ptr %5, align 4
  %42 = load ptr, ptr %3, align 8
  %43 = getelementptr inbounds nuw %struct.TupleDescData, ptr %42, i32 0, i32 0
  %44 = load i32, ptr %43, align 8
  %45 = icmp slt i32 %41, %44
  br i1 %45, label %46, label %131

46:                                               ; preds = %40
  call void @llvm.lifetime.start.p0(i64 8, ptr %6) #7
  %47 = load ptr, ptr %3, align 8
  %48 = load i32, ptr %5, align 4
  %49 = call ptr @TupleDescAttr(ptr noundef %47, i32 noundef %48)
  store ptr %49, ptr %6, align 8
  call void @llvm.lifetime.start.p0(i64 8, ptr %7) #7
  %50 = load ptr, ptr %4, align 8
  %51 = load i32, ptr %5, align 4
  %52 = call ptr @TupleDescAttr(ptr noundef %50, i32 noundef %51)
  store ptr %52, ptr %7, align 8
  %53 = load ptr, ptr %7, align 8
  %54 = getelementptr inbounds nuw %struct.FormData_pg_attribute, ptr %53, i32 0, i32 2
  %55 = load i32, ptr %54, align 4
  %56 = load ptr, ptr %6, align 8
  %57 = getelementptr inbounds nuw %struct.FormData_pg_attribute, ptr %56, i32 0, i32 2
  %58 = load i32, ptr %57, align 4
  %59 = call zeroext i1 @IsBinaryCoercible(i32 noundef %55, i32 noundef %58)
  br i1 %59, label %60, label %61

60:                                               ; preds = %46
  store i32 6, ptr %8, align 4
  br label %125

61:                                               ; preds = %46
  %62 = load ptr, ptr %6, align 8
  %63 = getelementptr inbounds nuw %struct.FormData_pg_attribute, ptr %62, i32 0, i32 16
  %64 = load i8, ptr %63, align 1, !range !4, !noundef !5
  %65 = trunc i8 %64 to i1
  br i1 %65, label %89, label %66

66:                                               ; preds = %61
  br label %67

67:                                               ; preds = %66
  br i1 true, label %68, label %70

68:                                               ; preds = %67
  %69 = call zeroext i1 @errstart_cold(i32 noundef 21, ptr noundef null) #8
  br i1 %69, label %72, label %86

70:                                               ; preds = %67
  %71 = call zeroext i1 @errstart(i32 noundef 21, ptr noundef null)
  br i1 %71, label %72, label %86

72:                                               ; preds = %70, %68
  %73 = call i32 @errcode(i32 noundef 67141764)
  %74 = call i32 (ptr, ...) @errmsg(ptr noundef @.str.11)
  %75 = load ptr, ptr %7, align 8
  %76 = getelementptr inbounds nuw %struct.FormData_pg_attribute, ptr %75, i32 0, i32 2
  %77 = load i32, ptr %76, align 4
  %78 = call ptr @format_type_be(i32 noundef %77)
  %79 = load i32, ptr %5, align 4
  %80 = add i32 %79, 1
  %81 = load ptr, ptr %6, align 8
  %82 = getelementptr inbounds nuw %struct.FormData_pg_attribute, ptr %81, i32 0, i32 2
  %83 = load i32, ptr %82, align 4
  %84 = call ptr @format_type_be(i32 noundef %83)
  %85 = call i32 (ptr, ...) @errdetail(ptr noundef @.str.14, ptr noundef %78, i32 noundef %80, ptr noundef %84)
  call void @errfinish(ptr noundef @.str.2, i32 noundef 970, ptr noundef @__func__.tupledesc_match)
  br label %86

86:                                               ; preds = %72, %70, %68
  unreachable

87:                                               ; No predecessors!
  br label %88

88:                                               ; preds = %87
  br label %89

89:                                               ; preds = %88, %61
  %90 = load ptr, ptr %6, align 8
  %91 = getelementptr inbounds nuw %struct.FormData_pg_attribute, ptr %90, i32 0, i32 3
  %92 = load i16, ptr %91, align 4
  %93 = sext i16 %92 to i32
  %94 = load ptr, ptr %7, align 8
  %95 = getelementptr inbounds nuw %struct.FormData_pg_attribute, ptr %94, i32 0, i32 3
  %96 = load i16, ptr %95, align 4
  %97 = sext i16 %96 to i32
  %98 = icmp ne i32 %93, %97
  br i1 %98, label %109, label %99

99:                                               ; preds = %89
  %100 = load ptr, ptr %6, align 8
  %101 = getelementptr inbounds nuw %struct.FormData_pg_attribute, ptr %100, i32 0, i32 8
  %102 = load i8, ptr %101, align 1
  %103 = sext i8 %102 to i32
  %104 = load ptr, ptr %7, align 8
  %105 = getelementptr inbounds nuw %struct.FormData_pg_attribute, ptr %104, i32 0, i32 8
  %106 = load i8, ptr %105, align 1
  %107 = sext i8 %106 to i32
  %108 = icmp ne i32 %103, %107
  br i1 %108, label %109, label %124

109:                                              ; preds = %99, %89
  br label %110

110:                                              ; preds = %109
  br i1 true, label %111, label %113

111:                                              ; preds = %110
  %112 = call zeroext i1 @errstart_cold(i32 noundef 21, ptr noundef null) #8
  br i1 %112, label %115, label %121

113:                                              ; preds = %110
  %114 = call zeroext i1 @errstart(i32 noundef 21, ptr noundef null)
  br i1 %114, label %115, label %121

115:                                              ; preds = %113, %111
  %116 = call i32 @errcode(i32 noundef 67141764)
  %117 = call i32 (ptr, ...) @errmsg(ptr noundef @.str.11)
  %118 = load i32, ptr %5, align 4
  %119 = add i32 %118, 1
  %120 = call i32 (ptr, ...) @errdetail(ptr noundef @.str.15, i32 noundef %119)
  call void @errfinish(ptr noundef @.str.2, i32 noundef 978, ptr noundef @__func__.tupledesc_match)
  br label %121

121:                                              ; preds = %115, %113, %111
  unreachable

122:                                              ; No predecessors!
  br label %123

123:                                              ; preds = %122
  br label %124

124:                                              ; preds = %123, %99
  store i32 0, ptr %8, align 4
  br label %125

125:                                              ; preds = %124, %60
  call void @llvm.lifetime.end.p0(i64 8, ptr %7) #7
  call void @llvm.lifetime.end.p0(i64 8, ptr %6) #7
  %126 = load i32, ptr %8, align 4
  switch i32 %126, label %132 [
    i32 0, label %127
    i32 6, label %128
  ]

127:                                              ; preds = %125
  br label %128

128:                                              ; preds = %127, %125
  %129 = load i32, ptr %5, align 4
  %130 = add i32 %129, 1
  store i32 %130, ptr %5, align 4
  br label %40, !llvm.loop !9

131:                                              ; preds = %40
  call void @llvm.lifetime.end.p0(i64 4, ptr %5) #7
  ret void

132:                                              ; preds = %125
  unreachable
}