; Function Attrs: nounwind uwtable
define internal fastcc void @tupledesc_match(ptr noundef readonly captures(none) %0, ptr noundef nonnull readonly captures(none) %1) unnamed_addr #0 {
  %3 = load i32, ptr %0, align 8
  %4 = load i32, ptr %1, align 8
  %.not = icmp eq i32 %3, %4
  br i1 %.not, label %.preheader, label %6

.preheader:                                       ; preds = %2
  %invariant.gep = getelementptr i8, ptr %0, i64 24
  %invariant.gep30 = getelementptr i8, ptr %1, i64 24
  %5 = icmp sgt i32 %3, 0
  br i1 %5, label %.lr.ph, label %._crit_edge

6:                                                ; preds = %2
  %7 = tail call zeroext i1 @errstart_cold(i32 noundef 21, ptr noundef null) #7
  tail call void @llvm.assume(i1 %7)
  %8 = tail call i32 @errcode(i32 noundef 67141764) #6
  %9 = tail call i32 (ptr, ...) @errmsg(ptr noundef nonnull @.str.11) #6
  %10 = load i32, ptr %1, align 8
  %11 = sext i32 %10 to i64
  %12 = load i32, ptr %0, align 8
  %13 = tail call i32 (ptr, ptr, i64, ...) @errdetail_plural(ptr noundef nonnull @.str.12, ptr noundef nonnull @.str.13, i64 noundef %11, i32 noundef %10, i32 noundef %12) #6
  tail call void @errfinish(ptr noundef nonnull @.str.2, i32 noundef 954, ptr noundef nonnull @__func__.tupledesc_match) #6
  unreachable

.lr.ph:                                           ; preds = %.preheader, %61
  %indvars.iv = phi i64 [ %indvars.iv.next, %61 ], [ 0, %.preheader ]
  %14 = phi i32 [ %62, %61 ], [ %3, %.preheader ]
  %15 = sext i32 %14 to i64
  %16 = shl nsw i64 %15, 4
  %gep = getelementptr i8, ptr %invariant.gep, i64 %16
  %17 = getelementptr inbounds nuw %struct.FormData_pg_attribute, ptr %gep, i64 %indvars.iv
  %18 = load i32, ptr %1, align 8
  %19 = sext i32 %18 to i64
  %20 = shl nsw i64 %19, 4
  %gep31 = getelementptr i8, ptr %invariant.gep30, i64 %20
  %21 = getelementptr inbounds nuw %struct.FormData_pg_attribute, ptr %gep31, i64 %indvars.iv
  %22 = getelementptr inbounds nuw i8, ptr %21, i64 68
  %23 = load i32, ptr %22, align 4
  %24 = getelementptr inbounds nuw i8, ptr %17, i64 68
  %25 = load i32, ptr %24, align 4
  %26 = tail call zeroext i1 @IsBinaryCoercible(i32 noundef %23, i32 noundef %25) #6
  br i1 %26, label %61, label %27

27:                                               ; preds = %.lr.ph
  %28 = getelementptr inbounds nuw i8, ptr %17, i64 91
  %29 = load i8, ptr %28, align 1, !range !4, !noundef !5
  %30 = trunc nuw i8 %29 to i1
  br i1 %30, label %44, label %31

31:                                               ; preds = %27
  %32 = getelementptr inbounds nuw i8, ptr %21, i64 68
  %33 = getelementptr inbounds nuw i8, ptr %17, i64 68
  %34 = trunc nuw nsw i64 %indvars.iv to i32
  %35 = tail call zeroext i1 @errstart_cold(i32 noundef 21, ptr noundef null) #7
  tail call void @llvm.assume(i1 %35)
  %36 = tail call i32 @errcode(i32 noundef 67141764) #6
  %37 = tail call i32 (ptr, ...) @errmsg(ptr noundef nonnull @.str.11) #6
  %38 = load i32, ptr %32, align 4
  %39 = tail call ptr @format_type_be(i32 noundef %38) #6
  %40 = add nuw nsw i32 %34, 1
  %41 = load i32, ptr %33, align 4
  %42 = tail call ptr @format_type_be(i32 noundef %41) #6
  %43 = tail call i32 (ptr, ...) @errdetail(ptr noundef nonnull @.str.14, ptr noundef %39, i32 noundef %40, ptr noundef %42) #6
  tail call void @errfinish(ptr noundef nonnull @.str.2, i32 noundef 970, ptr noundef nonnull @__func__.tupledesc_match) #6
  unreachable

44:                                               ; preds = %27
  %45 = getelementptr inbounds nuw i8, ptr %17, i64 72
  %46 = load i16, ptr %45, align 4
  %47 = getelementptr inbounds nuw i8, ptr %21, i64 72
  %48 = load i16, ptr %47, align 4
  %.not22 = icmp eq i16 %46, %48
  br i1 %.not22, label %49, label %54

49:                                               ; preds = %44
  %50 = getelementptr inbounds nuw i8, ptr %17, i64 83
  %51 = load i8, ptr %50, align 1
  %52 = getelementptr inbounds nuw i8, ptr %21, i64 83
  %53 = load i8, ptr %52, align 1
  %.not23 = icmp eq i8 %51, %53
  br i1 %.not23, label %61, label %54

54:                                               ; preds = %49, %44
  %55 = trunc nuw nsw i64 %indvars.iv to i32
  %56 = tail call zeroext i1 @errstart_cold(i32 noundef 21, ptr noundef null) #7
  tail call void @llvm.assume(i1 %56)
  %57 = tail call i32 @errcode(i32 noundef 67141764) #6
  %58 = tail call i32 (ptr, ...) @errmsg(ptr noundef nonnull @.str.11) #6
  %59 = add nuw nsw i32 %55, 1
  %60 = tail call i32 (ptr, ...) @errdetail(ptr noundef nonnull @.str.15, i32 noundef %59) #6
  tail call void @errfinish(ptr noundef nonnull @.str.2, i32 noundef 978, ptr noundef nonnull @__func__.tupledesc_match) #6
  unreachable

61:                                               ; preds = %49, %.lr.ph
  %indvars.iv.next = add nuw nsw i64 %indvars.iv, 1
  %62 = load i32, ptr %0, align 8
  %63 = sext i32 %62 to i64
  %64 = icmp slt i64 %indvars.iv.next, %63
  br i1 %64, label %.lr.ph, label %._crit_edge, !llvm.loop !9

._crit_edge:                                      ; preds = %61, %.preheader
  ret void
}